target datalayout = "e-m:e-p270:32:32-p271:32:32-p272:64:64-i64:64-i128:128-f80:128-n8:16:32:64-S128"
target triple = "x86_64-pc-linux-gnu"

%struct.H5T_vlen_alloc_info_t = type { ptr, ptr, ptr, ptr }

@H5_libterm_g = external global i8, align 1
@.str = private unnamed_addr constant [101 x i8] c"generated/home/dtcxzyw/WorkSpace/Projects/compilers/llvm-opt-benchmark/bench/hdf5/hdf5/src/H5Tvlen.c\00", align 1
@H5E_FUNC_g = external global i64, align 8
@H5E_CANTINIT_g = external global i64, align 8
@H5T_init_g = external global i8, align 1
@.str.2 = private unnamed_addr constant [32 x i8] c"interface initialization failed\00", align 1
@H5E_DATATYPE_g = external global i64, align 8
@H5E_CANTGET_g = external global i64, align 8
@H5E_CANTFREE_g = external global i64, align 8
@__func__.H5T_vlen_reclaim_elmt = private unnamed_addr constant [22 x i8] c"H5T_vlen_reclaim_elmt\00", align 1
@.str.19 = private unnamed_addr constant [38 x i8] c"unable to retrieve VL allocation info\00", align 1
@.str.20 = private unnamed_addr constant [28 x i8] c"can't reclaim vlen elements\00", align 1

; Function Attrs: nounwind uwtable
define i32 @H5T_vlen_reclaim_elmt(ptr noundef %0, ptr noundef %1) #0 {
  %3 = alloca ptr, align 8
  %4 = alloca ptr, align 8
  %5 = alloca %struct.H5T_vlen_alloc_info_t, align 8
  %6 = alloca i32, align 4
  %7 = alloca i8, align 1
  store ptr %0, ptr %3, align 8, !tbaa !38
  store ptr %1, ptr %4, align 8, !tbaa !7
  call void @llvm.lifetime.start.p0(i64 32, ptr %5) #9
  call void @llvm.lifetime.start.p0(i64 4, ptr %6) #9
  store i32 0, ptr %6, align 4, !tbaa !31
  call void @llvm.lifetime.start.p0(i64 1, ptr %7) #9
  store i8 0, ptr %7, align 1, !tbaa !10
  %8 = load i8, ptr @H5T_init_g, align 1, !tbaa !10, !range !12, !noundef !13
  %9 = trunc i8 %8 to i1
  br i1 %9, label %14, label %10

10:                                               ; preds = %2
  %11 = load i8, ptr @H5_libterm_g, align 1, !tbaa !10, !range !12, !noundef !13
  %12 = trunc i8 %11 to i1
  %13 = xor i1 %12, true
  br label %14

14:                                               ; preds = %10, %2
  %15 = phi i1 [ false, %2 ], [ %13, %10 ]
  %16 = xor i1 %15, true
  %17 = xor i1 %16, true
  %18 = zext i1 %17 to i32
  %19 = sext i32 %18 to i64
  %20 = call i64 @llvm.expect.i64(i64 %19, i64 0)
  %21 = icmp ne i64 %20, 0
  br i1 %21, label %22, label %45

22:                                               ; preds = %14
  store i8 1, ptr @H5T_init_g, align 1, !tbaa !10
  %23 = call i32 @H5T__init_package()
  %24 = icmp slt i32 %23, 0
  br i1 %24, label %25, label %44

25:                                               ; preds = %22
  store i8 0, ptr @H5T_init_g, align 1, !tbaa !10
  br label %26

26:                                               ; preds = %25
  br label %27

27:                                               ; preds = %26
  br label %28

28:                                               ; preds = %27
  %29 = load i64, ptr @H5E_FUNC_g, align 8, !tbaa !3
  %30 = load i64, ptr @H5E_CANTINIT_g, align 8, !tbaa !3
  %31 = call i32 (ptr, ptr, i32, i64, i64, ptr, ...) @H5E_printf_stack(ptr noundef @.str, ptr noundef @__func__.H5T_vlen_reclaim_elmt, i32 noundef 1073, i64 noundef %29, i64 noundef %30, ptr noundef @.str.2)
  br label %32

32:                                               ; preds = %28
  br label %33

33:                                               ; preds = %32
  store i8 1, ptr %7, align 1, !tbaa !10
  %34 = load i8, ptr %7, align 1, !tbaa !10, !range !12, !noundef !13
  %35 = trunc i8 %34 to i1
  %36 = zext i1 %35 to i8
  store i8 %36, ptr %7, align 1, !tbaa !10
  br label %37

37:                                               ; preds = %33
  br label %38

38:                                               ; preds = %37
  br label %39

39:                                               ; preds = %38
  store i32 -1, ptr %6, align 4, !tbaa !31
  br label %107

40:                                               ; No predecessors!
  br label %41

41:                                               ; preds = %40
  br label %42

42:                                               ; preds = %41
  br label %43

43:                                               ; preds = %42
  br label %44

44:                                               ; preds = %43, %22
  br label %45

45:                                               ; preds = %44, %14
  %46 = load i8, ptr @H5T_init_g, align 1, !tbaa !10, !range !12, !noundef !13
  %47 = trunc i8 %46 to i1
  br i1 %47, label %52, label %48

48:                                               ; preds = %45
  %49 = load i8, ptr @H5_libterm_g, align 1, !tbaa !10, !range !12, !noundef !13
  %50 = trunc i8 %49 to i1
  %51 = xor i1 %50, true
  br label %52

52:                                               ; preds = %48, %45
  %53 = phi i1 [ true, %45 ], [ %51, %48 ]
  %54 = xor i1 %53, true
  %55 = xor i1 %54, true
  %56 = zext i1 %55 to i32
  %57 = sext i32 %56 to i64
  %58 = call i64 @llvm.expect.i64(i64 %57, i64 1)
  %59 = icmp ne i64 %58, 0
  br i1 %59, label %60, label %108

60:                                               ; preds = %52
  %61 = call i32 @H5CX_get_vlen_alloc_info(ptr noundef %5)
  %62 = icmp slt i32 %61, 0
  br i1 %62, label %63, label %82

63:                                               ; preds = %60
  br label %64

64:                                               ; preds = %63
  br label %65

65:                                               ; preds = %64
  br label %66

66:                                               ; preds = %65
  %67 = load i64, ptr @H5E_DATATYPE_g, align 8, !tbaa !3
  %68 = load i64, ptr @H5E_CANTGET_g, align 8, !tbaa !3
  %69 = call i32 (ptr, ptr, i32, i64, i64, ptr, ...) @H5E_printf_stack(ptr noundef @.str, ptr noundef @__func__.H5T_vlen_reclaim_elmt, i32 noundef 1077, i64 noundef %67, i64 noundef %68, ptr noundef @.str.19)
  br label %70

70:                                               ; preds = %66
  br label %71

71:                                               ; preds = %70
  store i8 1, ptr %7, align 1, !tbaa !10
  %72 = load i8, ptr %7, align 1, !tbaa !10, !range !12, !noundef !13
  %73 = trunc i8 %72 to i1
  %74 = zext i1 %73 to i8
  store i8 %74, ptr %7, align 1, !tbaa !10
  br label %75

75:                                               ; preds = %71
  br label %76

76:                                               ; preds = %75
  br label %77

77:                                               ; preds = %76
  store i32 -1, ptr %6, align 4, !tbaa !31
  br label %107

78:                                               ; No predecessors!
  br label %79

79:                                               ; preds = %78
  br label %80

80:                                               ; preds = %79
  br label %81

81:                                               ; preds = %80
  br label %82

82:                                               ; preds = %81, %60
  %83 = load ptr, ptr %3, align 8, !tbaa !38
  %84 = load ptr, ptr %4, align 8, !tbaa !7
  %85 = call i32 @H5T__vlen_reclaim(ptr noundef %83, ptr noundef %84, ptr noundef %5)
  %86 = icmp slt i32 %85, 0
  br i1 %86, label %87, label %106

87:                                               ; preds = %82
  br label %88

88:                                               ; preds = %87
  br label %89

89:                                               ; preds = %88
  br label %90

90:                                               ; preds = %89
  %91 = load i64, ptr @H5E_DATATYPE_g, align 8, !tbaa !3
  %92 = load i64, ptr @H5E_CANTFREE_g, align 8, !tbaa !3
  %93 = call i32 (ptr, ptr, i32, i64, i64, ptr, ...) @H5E_printf_stack(ptr noundef @.str, ptr noundef @__func__.H5T_vlen_reclaim_elmt, i32 noundef 1081, i64 noundef %91, i64 noundef %92, ptr noundef @.str.20)
  br label %94

94:                                               ; preds = %90
  br label %95

95:                                               ; preds = %94
  store i8 1, ptr %7, align 1, !tbaa !10
  %96 = load i8, ptr %7, align 1, !tbaa !10, !range !12, !noundef !13
  %97 = trunc i8 %96 to i1
  %98 = zext i1 %97 to i8
  store i8 %98, ptr %7, align 1, !tbaa !10
  br label %99

99:                                               ; preds = %95
  br label %100

100:                                              ; preds = %99
  br label %101

101:                                              ; preds = %100
  store i32 -1, ptr %6, align 4, !tbaa !31
  br label %107

102:                                              ; No predecessors!
  br label %103

103:                                              ; preds = %102
  br label %104

104:                                              ; preds = %103
  br label %105

105:                                              ; preds = %104
  br label %106

106:                                              ; preds = %105, %82
  br label %107

107:                                              ; preds = %106, %101, %77, %39
  br label %108

108:                                              ; preds = %107, %52
  %109 = load i32, ptr %6, align 4, !tbaa !31
  call void @llvm.lifetime.end.p0(i64 1, ptr %7) #9
  call void @llvm.lifetime.end.p0(i64 4, ptr %6) #9
  call void @llvm.lifetime.end.p0(i64 32, ptr %5) #9
  ret i32 %109
}