; Function Attrs: nounwind uwtable
define range(i32 -1, 1) i32 @H5T_vlen_reclaim_elmt(ptr noundef %0, ptr noundef readonly captures(none) %1) local_unnamed_addr #0 {
  %3 = alloca %struct.H5T_vlen_alloc_info_t, align 8
  call void @llvm.lifetime.start.p0(i64 32, ptr nonnull %3) #13
  %4 = load i8, ptr @H5T_init_g, align 1, !tbaa !3, !range !7, !noundef !8
  %5 = trunc nuw i8 %4 to i1
  %6 = load i8, ptr @H5_libterm_g, align 1, !range !7
  %7 = trunc nuw i8 %6 to i1
  %8 = select i1 %5, i1 true, i1 %7
  br i1 %8, label %16, label %9, !prof !9

9:                                                ; preds = %2
  store i8 1, ptr @H5T_init_g, align 1, !tbaa !3
  %10 = tail call i32 @H5T__init_package() #13
  %11 = icmp slt i32 %10, 0
  br i1 %11, label %12, label %._crit_edge

._crit_edge:                                      ; preds = %9
  %.pre = load i8, ptr @H5T_init_g, align 1, !tbaa !3, !range !7
  %.pre5 = load i8, ptr @H5_libterm_g, align 1, !range !7
  %.pre6 = trunc nuw i8 %.pre to i1
  %.pre7 = trunc nuw i8 %.pre5 to i1
  br label %16

12:                                               ; preds = %9
  store i8 0, ptr @H5T_init_g, align 1, !tbaa !3
  %13 = load i64, ptr @H5E_FUNC_g, align 8, !tbaa !11
  %14 = load i64, ptr @H5E_CANTINIT_g, align 8, !tbaa !11
  %15 = tail call i32 (ptr, ptr, i32, i64, i64, ptr, ...) @H5E_printf_stack(ptr noundef nonnull @.str, ptr noundef nonnull @__func__.H5T_vlen_reclaim_elmt, i32 noundef 1073, i64 noundef %13, i64 noundef %14, ptr noundef nonnull @.str.2) #13
  br label %33

16:                                               ; preds = %._crit_edge, %2
  %.pre-phi8 = phi i1 [ %.pre7, %._crit_edge ], [ %7, %2 ]
  %.pre-phi = phi i1 [ %.pre6, %._crit_edge ], [ %5, %2 ]
  %17 = xor i1 %.pre-phi8, true
  %18 = select i1 %.pre-phi, i1 true, i1 %17
  br i1 %18, label %19, label %33, !prof !9

19:                                               ; preds = %16
  %20 = call i32 @H5CX_get_vlen_alloc_info(ptr noundef nonnull %3) #13
  %21 = icmp slt i32 %20, 0
  br i1 %21, label %22, label %26

22:                                               ; preds = %19
  %23 = load i64, ptr @H5E_DATATYPE_g, align 8, !tbaa !11
  %24 = load i64, ptr @H5E_CANTGET_g, align 8, !tbaa !11
  %25 = call i32 (ptr, ptr, i32, i64, i64, ptr, ...) @H5E_printf_stack(ptr noundef nonnull @.str, ptr noundef nonnull @__func__.H5T_vlen_reclaim_elmt, i32 noundef 1077, i64 noundef %23, i64 noundef %24, ptr noundef nonnull @.str.19) #13
  br label %33

26:                                               ; preds = %19
  %27 = call i32 @H5T__vlen_reclaim(ptr noundef %0, ptr noundef %1, ptr noundef nonnull %3)
  %28 = icmp slt i32 %27, 0
  br i1 %28, label %29, label %33

29:                                               ; preds = %26
  %30 = load i64, ptr @H5E_DATATYPE_g, align 8, !tbaa !11
  %31 = load i64, ptr @H5E_CANTFREE_g, align 8, !tbaa !11
  %32 = call i32 (ptr, ptr, i32, i64, i64, ptr, ...) @H5E_printf_stack(ptr noundef nonnull @.str, ptr noundef nonnull @__func__.H5T_vlen_reclaim_elmt, i32 noundef 1081, i64 noundef %30, i64 noundef %31, ptr noundef nonnull @.str.20) #13
  br label %33

33:                                               ; preds = %12, %22, %29, %26, %16
  %.0 = phi i32 [ -1, %12 ], [ -1, %22 ], [ -1, %29 ], [ 0, %26 ], [ 0, %16 ]
  call void @llvm.lifetime.end.p0(i64 32, ptr nonnull %3) #13
  ret i32 %.0
}